target datalayout = "e-m:e-p270:32:32-p271:32:32-p272:64:64-i64:64-i128:128-f80:128-n8:16:32:64-S128"
target triple = "x86_64-pc-linux-gnu"

; Function Attrs: alwaysinline nounwind
define internal ptr @strncpy.inline(ptr noalias nonnull %0, ptr noalias nonnull %1, i64 %2) #9 {
  %4 = alloca ptr, align 8
  %5 = alloca ptr, align 8
  %6 = alloca i64, align 8
  store ptr %0, ptr %4, align 8, !tbaa !35
  store ptr %1, ptr %5, align 8, !tbaa !35
  store i64 %2, ptr %6, align 8, !tbaa !6
  %7 = load ptr, ptr %4, align 8, !tbaa !35
  %8 = load ptr, ptr %5, align 8, !tbaa !35
  %9 = load i64, ptr %6, align 8, !tbaa !6
  %10 = load ptr, ptr %4, align 8, !tbaa !35
  %11 = call i64 @llvm.objectsize.i64.p0(ptr %10, i1 false, i1 true, i1 false)
  %12 = call ptr @__strncpy_chk(ptr noundef %7, ptr noundef %8, i64 noundef %9, i64 noundef %11) #17
  ret ptr %12
}

; Function Attrs: nounwind sspstrong uwtable
define internal ptr @make_unique_str(ptr noundef %0, ptr noundef %1, i64 noundef %2) #0 {
  %4 = alloca ptr, align 8
  %5 = alloca ptr, align 8
  %6 = alloca ptr, align 8
  %7 = alloca i64, align 8
  %8 = alloca i64, align 8
  %9 = alloca ptr, align 8
  store ptr %0, ptr %5, align 8, !tbaa !44
  store ptr %1, ptr %6, align 8, !tbaa !35
  store i64 %2, ptr %7, align 8, !tbaa !6
  %10 = load ptr, ptr %6, align 8, !tbaa !35
  %11 = icmp ne ptr %10, null
  br i1 %11, label %13, label %12

12:                                               ; preds = %3
  store ptr null, ptr %4, align 8
  br label %48

13:                                               ; preds = %3
  call void @llvm.lifetime.start.p0(i64 8, ptr %8) #17
  call void @llvm.lifetime.start.p0(i64 8, ptr %9) #17
  %14 = load ptr, ptr %5, align 8, !tbaa !44
  %15 = load ptr, ptr %6, align 8, !tbaa !35
  %16 = ptrtoint ptr %15 to i64
  %17 = call i32 @rb_st_lookup(ptr noundef %14, i64 noundef %16, ptr noundef %8)
  %18 = icmp ne i32 %17, 0
  br i1 %18, label %19, label %32

19:                                               ; preds = %13
  %20 = load ptr, ptr %5, align 8, !tbaa !44
  %21 = load ptr, ptr %6, align 8, !tbaa !35
  %22 = ptrtoint ptr %21 to i64
  %23 = load i64, ptr %8, align 8, !tbaa !6
  %24 = add i64 %23, 1
  %25 = call i32 @rb_st_insert(ptr noundef %20, i64 noundef %22, i64 noundef %24)
  %26 = load ptr, ptr %5, align 8, !tbaa !44
  %27 = load ptr, ptr %6, align 8, !tbaa !35
  %28 = ptrtoint ptr %27 to i64
  %29 = call i32 @rb_st_get_key(ptr noundef %26, i64 noundef %28, ptr noundef %8)
  %30 = load i64, ptr %8, align 8, !tbaa !6
  %31 = inttoptr i64 %30 to ptr
  store ptr %31, ptr %9, align 8, !tbaa !35
  br label %46

32:                                               ; preds = %13
  %33 = load i64, ptr %7, align 8, !tbaa !6
  %34 = add nsw i64 %33, 1
  %35 = call noalias nonnull ptr @ruby_xmalloc(i64 noundef %34) #20
  store ptr %35, ptr %9, align 8, !tbaa !35
  %36 = load ptr, ptr %9, align 8, !tbaa !35
  %37 = load ptr, ptr %6, align 8, !tbaa !35
  %38 = load i64, ptr %7, align 8, !tbaa !6
  %39 = call ptr @strncpy.inline(ptr noundef %36, ptr noundef %37, i64 noundef %38) #17
  %40 = load ptr, ptr %9, align 8, !tbaa !35
  %41 = load i64, ptr %7, align 8, !tbaa !6
  %42 = getelementptr inbounds i8, ptr %40, i64 %41
  store i8 0, ptr %42, align 1, !tbaa !46
  %43 = load ptr, ptr %5, align 8, !tbaa !44
  %44 = load ptr, ptr %9, align 8, !tbaa !35
  %45 = ptrtoint ptr %44 to i64
  call void @rb_st_add_direct(ptr noundef %43, i64 noundef %45, i64 noundef 1)
  br label %46

46:                                               ; preds = %32, %19
  %47 = load ptr, ptr %9, align 8, !tbaa !35
  store ptr %47, ptr %4, align 8
  call void @llvm.lifetime.end.p0(i64 8, ptr %9) #17
  call void @llvm.lifetime.end.p0(i64 8, ptr %8) #17
  br label %48

48:                                               ; preds = %46, %12
  %49 = load ptr, ptr %4, align 8
  ret ptr %49
}