; Function Attrs: nounwind sspstrong uwtable
define internal fastcc ptr @make_unique_str(ptr noundef %0, ptr noundef %1, i64 noundef %2) unnamed_addr #0 {
  %4 = alloca i64, align 8
  %.not = icmp eq ptr %1, null
  br i1 %.not, label %21, label %5

5:                                                ; preds = %3
  call void @llvm.lifetime.start.p0(i64 8, ptr nonnull %4) #10
  %6 = ptrtoint ptr %1 to i64
  %7 = call i32 @rb_st_lookup(ptr noundef %0, i64 noundef %6, ptr noundef nonnull %4) #10
  %.not18 = icmp eq i32 %7, 0
  br i1 %.not18, label %15, label %8

8:                                                ; preds = %5
  %9 = load i64, ptr %4, align 8, !tbaa !16
  %10 = add i64 %9, 1
  %11 = call i32 @rb_st_insert(ptr noundef %0, i64 noundef %6, i64 noundef %10) #10
  %12 = call i32 @rb_st_get_key(ptr noundef %0, i64 noundef %6, ptr noundef nonnull %4) #10
  %13 = load i64, ptr %4, align 8, !tbaa !16
  %14 = inttoptr i64 %13 to ptr
  br label %20

15:                                               ; preds = %5
  %16 = add nsw i64 %2, 1
  %17 = call noalias nonnull ptr @ruby_xmalloc(i64 noundef %16) #11
  %strncpy = call ptr @strncpy(ptr nonnull %17, ptr nonnull %1, i64 %2)
  %18 = getelementptr inbounds i8, ptr %17, i64 %2
  store i8 0, ptr %18, align 1, !tbaa !47
  %19 = ptrtoint ptr %17 to i64
  call void @rb_st_add_direct(ptr noundef %0, i64 noundef %19, i64 noundef 1) #10
  br label %20

20:                                               ; preds = %15, %8
  %.0 = phi ptr [ %14, %8 ], [ %17, %15 ]
  call void @llvm.lifetime.end.p0(i64 8, ptr nonnull %4) #10
  br label %21

21:                                               ; preds = %3, %20
  %.016 = phi ptr [ %.0, %20 ], [ null, %3 ]
  ret ptr %.016
}